target datalayout = "e-m:e-p270:32:32-p271:32:32-p272:64:64-i64:64-i128:128-f80:128-n8:16:32:64-S128"
target triple = "x86_64-pc-linux-gnu"

%struct.FFBoundingBox = type { i32, i32, i32, i32 }
%struct.AVFilterLink = type { ptr, ptr, ptr, ptr, i32, i32, i32, i32, %struct.AVRational, i32, i32, i32, %struct.AVChannelLayout, %struct.AVRational, ptr, i32, %struct.AVFilterFormatsConfig, %struct.AVFilterFormatsConfig }
%struct.AVChannelLayout = type { i32, i32, %union.anon.1, ptr }
%union.anon.1 = type { i64 }
%struct.AVRational = type { i32, i32 }
%struct.AVFilterFormatsConfig = type { ptr, ptr, ptr, ptr, ptr }
%struct.AVFilterContext = type { ptr, ptr, ptr, ptr, ptr, i32, ptr, ptr, i32, ptr, ptr, i32, i32, ptr, ptr, ptr, ptr, i32, ptr, i32, i32 }
%struct.AVFrame = type { [8 x ptr], [8 x i32], ptr, i32, i32, i32, i32, i32, %struct.AVRational, i64, i64, %struct.AVRational, i32, ptr, i32, i32, [8 x ptr], ptr, i32, ptr, i32, i32, i32, i32, i32, i32, i32, i64, ptr, i32, ptr, ptr, i64, i64, i64, i64, ptr, %struct.AVChannelLayout, i64 }
%struct.BBoxContext = type { ptr, i32, i32 }
%struct.FilterLink = type { %struct.AVFilterLink, ptr, i64, i64, i32, i32, i64, i64, i64, i64, %struct.AVRational, ptr }

@.str.3 = private unnamed_addr constant [25 x i8] c"n:%ld pts:%s pts_time:%s\00", align 1
@.str.4 = private unnamed_addr constant [14 x i8] c"lavfi.bbox.x1\00", align 1
@.str.5 = private unnamed_addr constant [14 x i8] c"lavfi.bbox.x2\00", align 1
@.str.6 = private unnamed_addr constant [14 x i8] c"lavfi.bbox.y1\00", align 1
@.str.7 = private unnamed_addr constant [14 x i8] c"lavfi.bbox.y2\00", align 1
@.str.8 = private unnamed_addr constant [13 x i8] c"lavfi.bbox.w\00", align 1
@.str.9 = private unnamed_addr constant [13 x i8] c"lavfi.bbox.h\00", align 1
@.str.10 = private unnamed_addr constant [72 x i8] c" x1:%d x2:%d y1:%d y2:%d w:%d h:%d crop=%d:%d:%d:%d drawbox=%d:%d:%d:%d\00", align 1
@.str.11 = private unnamed_addr constant [2 x i8] c"\0A\00", align 1
@.str.12 = private unnamed_addr constant [6 x i8] c"NOPTS\00", align 1
@.str.13 = private unnamed_addr constant [4 x i8] c"%ld\00", align 1

; Function Attrs: inlinehint nounwind uwtable
define internal ptr @av_ts_make_time_string(ptr noundef %0, i64 noundef %1, ptr noundef %2) #3 {
  %4 = alloca ptr, align 8
  %5 = alloca i64, align 8
  %6 = alloca ptr, align 8
  store ptr %0, ptr %4, align 8, !tbaa !38
  store i64 %1, ptr %5, align 8, !tbaa !61
  store ptr %2, ptr %6, align 8, !tbaa !62
  %7 = load ptr, ptr %4, align 8, !tbaa !38
  %8 = load i64, ptr %5, align 8, !tbaa !61
  %9 = load ptr, ptr %6, align 8, !tbaa !62
  %10 = load i64, ptr %9, align 4
  %11 = call ptr @av_ts_make_time_string2(ptr noundef %7, i64 noundef %8, i64 %10)
  ret ptr %11
}

; Function Attrs: inlinehint nounwind uwtable
define internal ptr @av_ts_make_string(ptr noundef %0, i64 noundef %1) #3 {
  %3 = alloca ptr, align 8
  %4 = alloca i64, align 8
  store ptr %0, ptr %3, align 8, !tbaa !38
  store i64 %1, ptr %4, align 8, !tbaa !61
  %5 = load i64, ptr %4, align 8, !tbaa !61
  %6 = icmp eq i64 %5, -9223372036854775808
  br i1 %6, label %7, label %10

7:                                                ; preds = %2
  %8 = load ptr, ptr %3, align 8, !tbaa !38
  %9 = call i32 (ptr, i64, ptr, ...) @snprintf(ptr noundef %8, i64 noundef 32, ptr noundef @.str.12) #6
  br label %14

10:                                               ; preds = %2
  %11 = load ptr, ptr %3, align 8, !tbaa !38
  %12 = load i64, ptr %4, align 8, !tbaa !61
  %13 = call i32 (ptr, i64, ptr, ...) @snprintf(ptr noundef %11, i64 noundef 32, ptr noundef @.str.13, i64 noundef %12) #6
  br label %14

14:                                               ; preds = %10, %7
  %15 = load ptr, ptr %3, align 8, !tbaa !38
  ret ptr %15
}

; Function Attrs: inlinehint nounwind uwtable
define internal ptr @ff_filter_link(ptr noundef %0) #3 {
  %2 = alloca ptr, align 8
  store ptr %0, ptr %2, align 8, !tbaa !4
  %3 = load ptr, ptr %2, align 8, !tbaa !4
  ret ptr %3
}

; Function Attrs: nounwind uwtable
define internal i32 @filter_frame(ptr noundef %0, ptr noundef %1) #1 {
  %3 = alloca ptr, align 8
  %4 = alloca ptr, align 8
  %5 = alloca ptr, align 8
  %6 = alloca ptr, align 8
  %7 = alloca ptr, align 8
  %8 = alloca %struct.FFBoundingBox, align 4
  %9 = alloca i32, align 4
  %10 = alloca i32, align 4
  %11 = alloca i32, align 4
  %12 = alloca [32 x i8], align 1
  %13 = alloca [32 x i8], align 1
  %14 = alloca ptr, align 8
  store ptr %0, ptr %3, align 8, !tbaa !4
  store ptr %1, ptr %4, align 8, !tbaa !9
  call void @llvm.lifetime.start.p0(i64 8, ptr %5) #6
  %15 = load ptr, ptr %3, align 8, !tbaa !4
  %16 = call ptr @ff_filter_link(ptr noundef %15)
  store ptr %16, ptr %5, align 8, !tbaa !11
  call void @llvm.lifetime.start.p0(i64 8, ptr %6) #6
  %17 = load ptr, ptr %3, align 8, !tbaa !4
  %18 = getelementptr inbounds nuw %struct.AVFilterLink, ptr %17, i32 0, i32 2
  %19 = load ptr, ptr %18, align 8, !tbaa !13
  store ptr %19, ptr %6, align 8, !tbaa !25
  call void @llvm.lifetime.start.p0(i64 8, ptr %7) #6
  %20 = load ptr, ptr %6, align 8, !tbaa !25
  %21 = getelementptr inbounds nuw %struct.AVFilterContext, ptr %20, i32 0, i32 9
  %22 = load ptr, ptr %21, align 8, !tbaa !26
  store ptr %22, ptr %7, align 8, !tbaa !36
  call void @llvm.lifetime.start.p0(i64 16, ptr %8) #6
  call void @llvm.lifetime.start.p0(i64 4, ptr %9) #6
  call void @llvm.lifetime.start.p0(i64 4, ptr %10) #6
  call void @llvm.lifetime.start.p0(i64 4, ptr %11) #6
  %23 = load ptr, ptr %4, align 8, !tbaa !9
  %24 = getelementptr inbounds nuw %struct.AVFrame, ptr %23, i32 0, i32 0
  %25 = getelementptr inbounds [8 x ptr], ptr %24, i64 0, i64 0
  %26 = load ptr, ptr %25, align 8, !tbaa !38
  %27 = load ptr, ptr %4, align 8, !tbaa !9
  %28 = getelementptr inbounds nuw %struct.AVFrame, ptr %27, i32 0, i32 1
  %29 = getelementptr inbounds [8 x i32], ptr %28, i64 0, i64 0
  %30 = load i32, ptr %29, align 8, !tbaa !39
  %31 = load ptr, ptr %3, align 8, !tbaa !4
  %32 = getelementptr inbounds nuw %struct.AVFilterLink, ptr %31, i32 0, i32 6
  %33 = load i32, ptr %32, align 8, !tbaa !40
  %34 = load ptr, ptr %3, align 8, !tbaa !4
  %35 = getelementptr inbounds nuw %struct.AVFilterLink, ptr %34, i32 0, i32 7
  %36 = load i32, ptr %35, align 4, !tbaa !41
  %37 = load ptr, ptr %7, align 8, !tbaa !36
  %38 = getelementptr inbounds nuw %struct.BBoxContext, ptr %37, i32 0, i32 1
  %39 = load i32, ptr %38, align 8, !tbaa !42
  %40 = load ptr, ptr %7, align 8, !tbaa !36
  %41 = getelementptr inbounds nuw %struct.BBoxContext, ptr %40, i32 0, i32 2
  %42 = load i32, ptr %41, align 4, !tbaa !44
  %43 = call i32 @ff_calculate_bounding_box(ptr noundef %8, ptr noundef %26, i32 noundef %30, i32 noundef %33, i32 noundef %36, i32 noundef %39, i32 noundef %42)
  store i32 %43, ptr %9, align 4, !tbaa !39
  %44 = getelementptr inbounds nuw %struct.FFBoundingBox, ptr %8, i32 0, i32 1
  %45 = load i32, ptr %44, align 4, !tbaa !45
  %46 = getelementptr inbounds nuw %struct.FFBoundingBox, ptr %8, i32 0, i32 0
  %47 = load i32, ptr %46, align 4, !tbaa !47
  %48 = sub nsw i32 %45, %47
  %49 = add nsw i32 %48, 1
  store i32 %49, ptr %10, align 4, !tbaa !39
  %50 = getelementptr inbounds nuw %struct.FFBoundingBox, ptr %8, i32 0, i32 3
  %51 = load i32, ptr %50, align 4, !tbaa !48
  %52 = getelementptr inbounds nuw %struct.FFBoundingBox, ptr %8, i32 0, i32 2
  %53 = load i32, ptr %52, align 4, !tbaa !49
  %54 = sub nsw i32 %51, %53
  %55 = add nsw i32 %54, 1
  store i32 %55, ptr %11, align 4, !tbaa !39
  %56 = load ptr, ptr %6, align 8, !tbaa !25
  %57 = load ptr, ptr %5, align 8, !tbaa !11
  %58 = getelementptr inbounds nuw %struct.FilterLink, ptr %57, i32 0, i32 7
  %59 = load i64, ptr %58, align 8, !tbaa !50
  call void @llvm.memset.p0.i64(ptr align 1 %12, i8 0, i64 32, i1 false)
  %60 = getelementptr inbounds [32 x i8], ptr %12, i64 0, i64 0
  %61 = load ptr, ptr %4, align 8, !tbaa !9
  %62 = getelementptr inbounds nuw %struct.AVFrame, ptr %61, i32 0, i32 9
  %63 = load i64, ptr %62, align 8, !tbaa !53
  %64 = call ptr @av_ts_make_string(ptr noundef %60, i64 noundef %63)
  call void @llvm.memset.p0.i64(ptr align 1 %13, i8 0, i64 32, i1 false)
  %65 = getelementptr inbounds [32 x i8], ptr %13, i64 0, i64 0
  %66 = load ptr, ptr %4, align 8, !tbaa !9
  %67 = getelementptr inbounds nuw %struct.AVFrame, ptr %66, i32 0, i32 9
  %68 = load i64, ptr %67, align 8, !tbaa !53
  %69 = load ptr, ptr %3, align 8, !tbaa !4
  %70 = getelementptr inbounds nuw %struct.AVFilterLink, ptr %69, i32 0, i32 13
  %71 = call ptr @av_ts_make_time_string(ptr noundef %65, i64 noundef %68, ptr noundef %70)
  call void (ptr, i32, ptr, ...) @av_log(ptr noundef %56, i32 noundef 32, ptr noundef @.str.3, i64 noundef %59, ptr noundef %64, ptr noundef %71)
  %72 = load i32, ptr %9, align 4, !tbaa !39
  %73 = icmp ne i32 %72, 0
  br i1 %73, label %74, label %128

74:                                               ; preds = %2
  call void @llvm.lifetime.start.p0(i64 8, ptr %14) #6
  %75 = load ptr, ptr %4, align 8, !tbaa !9
  %76 = getelementptr inbounds nuw %struct.AVFrame, ptr %75, i32 0, i32 28
  store ptr %76, ptr %14, align 8, !tbaa !58
  %77 = load ptr, ptr %14, align 8, !tbaa !58
  %78 = getelementptr inbounds nuw %struct.FFBoundingBox, ptr %8, i32 0, i32 0
  %79 = load i32, ptr %78, align 4, !tbaa !47
  %80 = sext i32 %79 to i64
  %81 = call i32 @av_dict_set_int(ptr noundef %77, ptr noundef @.str.4, i64 noundef %80, i32 noundef 0)
  %82 = load ptr, ptr %14, align 8, !tbaa !58
  %83 = getelementptr inbounds nuw %struct.FFBoundingBox, ptr %8, i32 0, i32 1
  %84 = load i32, ptr %83, align 4, !tbaa !45
  %85 = sext i32 %84 to i64
  %86 = call i32 @av_dict_set_int(ptr noundef %82, ptr noundef @.str.5, i64 noundef %85, i32 noundef 0)
  %87 = load ptr, ptr %14, align 8, !tbaa !58
  %88 = getelementptr inbounds nuw %struct.FFBoundingBox, ptr %8, i32 0, i32 2
  %89 = load i32, ptr %88, align 4, !tbaa !49
  %90 = sext i32 %89 to i64
  %91 = call i32 @av_dict_set_int(ptr noundef %87, ptr noundef @.str.6, i64 noundef %90, i32 noundef 0)
  %92 = load ptr, ptr %14, align 8, !tbaa !58
  %93 = getelementptr inbounds nuw %struct.FFBoundingBox, ptr %8, i32 0, i32 3
  %94 = load i32, ptr %93, align 4, !tbaa !48
  %95 = sext i32 %94 to i64
  %96 = call i32 @av_dict_set_int(ptr noundef %92, ptr noundef @.str.7, i64 noundef %95, i32 noundef 0)
  %97 = load ptr, ptr %14, align 8, !tbaa !58
  %98 = load i32, ptr %10, align 4, !tbaa !39
  %99 = sext i32 %98 to i64
  %100 = call i32 @av_dict_set_int(ptr noundef %97, ptr noundef @.str.8, i64 noundef %99, i32 noundef 0)
  %101 = load ptr, ptr %14, align 8, !tbaa !58
  %102 = load i32, ptr %11, align 4, !tbaa !39
  %103 = sext i32 %102 to i64
  %104 = call i32 @av_dict_set_int(ptr noundef %101, ptr noundef @.str.9, i64 noundef %103, i32 noundef 0)
  %105 = load ptr, ptr %6, align 8, !tbaa !25
  %106 = getelementptr inbounds nuw %struct.FFBoundingBox, ptr %8, i32 0, i32 0
  %107 = load i32, ptr %106, align 4, !tbaa !47
  %108 = getelementptr inbounds nuw %struct.FFBoundingBox, ptr %8, i32 0, i32 1
  %109 = load i32, ptr %108, align 4, !tbaa !45
  %110 = getelementptr inbounds nuw %struct.FFBoundingBox, ptr %8, i32 0, i32 2
  %111 = load i32, ptr %110, align 4, !tbaa !49
  %112 = getelementptr inbounds nuw %struct.FFBoundingBox, ptr %8, i32 0, i32 3
  %113 = load i32, ptr %112, align 4, !tbaa !48
  %114 = load i32, ptr %10, align 4, !tbaa !39
  %115 = load i32, ptr %11, align 4, !tbaa !39
  %116 = load i32, ptr %10, align 4, !tbaa !39
  %117 = load i32, ptr %11, align 4, !tbaa !39
  %118 = getelementptr inbounds nuw %struct.FFBoundingBox, ptr %8, i32 0, i32 0
  %119 = load i32, ptr %118, align 4, !tbaa !47
  %120 = getelementptr inbounds nuw %struct.FFBoundingBox, ptr %8, i32 0, i32 2
  %121 = load i32, ptr %120, align 4, !tbaa !49
  %122 = getelementptr inbounds nuw %struct.FFBoundingBox, ptr %8, i32 0, i32 0
  %123 = load i32, ptr %122, align 4, !tbaa !47
  %124 = getelementptr inbounds nuw %struct.FFBoundingBox, ptr %8, i32 0, i32 2
  %125 = load i32, ptr %124, align 4, !tbaa !49
  %126 = load i32, ptr %10, align 4, !tbaa !39
  %127 = load i32, ptr %11, align 4, !tbaa !39
  call void (ptr, i32, ptr, ...) @av_log(ptr noundef %105, i32 noundef 32, ptr noundef @.str.10, i32 noundef %107, i32 noundef %109, i32 noundef %111, i32 noundef %113, i32 noundef %114, i32 noundef %115, i32 noundef %116, i32 noundef %117, i32 noundef %119, i32 noundef %121, i32 noundef %123, i32 noundef %125, i32 noundef %126, i32 noundef %127)
  call void @llvm.lifetime.end.p0(i64 8, ptr %14) #6
  br label %128

128:                                              ; preds = %74, %2
  %129 = load ptr, ptr %6, align 8, !tbaa !25
  call void (ptr, i32, ptr, ...) @av_log(ptr noundef %129, i32 noundef 32, ptr noundef @.str.11)
  %130 = load ptr, ptr %3, align 8, !tbaa !4
  %131 = getelementptr inbounds nuw %struct.AVFilterLink, ptr %130, i32 0, i32 2
  %132 = load ptr, ptr %131, align 8, !tbaa !13
  %133 = getelementptr inbounds nuw %struct.AVFilterContext, ptr %132, i32 0, i32 7
  %134 = load ptr, ptr %133, align 8, !tbaa !60
  %135 = getelementptr inbounds ptr, ptr %134, i64 0
  %136 = load ptr, ptr %135, align 8, !tbaa !4
  %137 = load ptr, ptr %4, align 8, !tbaa !9
  %138 = call i32 @ff_filter_frame(ptr noundef %136, ptr noundef %137)
  call void @llvm.lifetime.end.p0(i64 4, ptr %11) #6
  call void @llvm.lifetime.end.p0(i64 4, ptr %10) #6
  call void @llvm.lifetime.end.p0(i64 4, ptr %9) #6
  call void @llvm.lifetime.end.p0(i64 16, ptr %8) #6
  call void @llvm.lifetime.end.p0(i64 8, ptr %7) #6
  call void @llvm.lifetime.end.p0(i64 8, ptr %6) #6
  call void @llvm.lifetime.end.p0(i64 8, ptr %5) #6
  ret i32 %138
}