; Function Attrs: nounwind uwtable
define internal i32 @filter_frame(ptr noundef readonly captures(none) %0, ptr noundef %1) #1 {
  %3 = alloca %struct.FFBoundingBox, align 4
  %4 = alloca [32 x i8], align 1
  %5 = alloca [32 x i8], align 1
  %6 = getelementptr inbounds nuw i8, ptr %0, i64 16
  %7 = load ptr, ptr %6, align 8, !tbaa !4
  %8 = getelementptr inbounds nuw i8, ptr %7, i64 72
  %9 = load ptr, ptr %8, align 8, !tbaa !19
  call void @llvm.lifetime.start.p0(i64 16, ptr nonnull %3) #6
  %10 = load ptr, ptr %1, align 8, !tbaa !29
  %11 = getelementptr inbounds nuw i8, ptr %1, i64 64
  %12 = load i32, ptr %11, align 8, !tbaa !30
  %13 = getelementptr inbounds nuw i8, ptr %0, i64 40
  %14 = load i32, ptr %13, align 8, !tbaa !31
  %15 = getelementptr inbounds nuw i8, ptr %0, i64 44
  %16 = load i32, ptr %15, align 4, !tbaa !32
  %17 = getelementptr inbounds nuw i8, ptr %9, i64 8
  %18 = load i32, ptr %17, align 8, !tbaa !33
  %19 = getelementptr inbounds nuw i8, ptr %9, i64 12
  %20 = load i32, ptr %19, align 4, !tbaa !35
  %21 = call i32 @ff_calculate_bounding_box(ptr noundef nonnull %3, ptr noundef %10, i32 noundef %12, i32 noundef %14, i32 noundef %16, i32 noundef %18, i32 noundef %20) #6
  %22 = getelementptr inbounds nuw i8, ptr %3, i64 4
  %23 = load i32, ptr %22, align 4, !tbaa !36
  %24 = load i32, ptr %3, align 4, !tbaa !38
  %25 = getelementptr inbounds nuw i8, ptr %3, i64 12
  %26 = load i32, ptr %25, align 4, !tbaa !39
  %27 = getelementptr inbounds nuw i8, ptr %3, i64 8
  %28 = load i32, ptr %27, align 4, !tbaa !40
  %29 = getelementptr inbounds nuw i8, ptr %0, i64 240
  %30 = load i64, ptr %29, align 8, !tbaa !41
  call void @llvm.memset.p0.i64(ptr noundef nonnull align 1 dereferenceable(32) %4, i8 0, i64 32, i1 false)
  %31 = getelementptr inbounds nuw i8, ptr %1, i64 136
  %32 = load i64, ptr %31, align 8, !tbaa !44
  %33 = icmp eq i64 %32, -9223372036854775808
  br i1 %33, label %34, label %35

34:                                               ; preds = %2
  call void @llvm.memcpy.p0.p0.i64(ptr noundef nonnull align 1 dereferenceable(6) %4, ptr noundef nonnull align 1 dereferenceable(6) @.str.12, i64 6, i1 false)
  br label %av_ts_make_string.exit

35:                                               ; preds = %2
  %36 = call i32 (ptr, i64, ptr, ...) @snprintf(ptr noundef nonnull dereferenceable(1) %4, i64 noundef 32, ptr noundef nonnull @.str.13, i64 noundef %32) #6
  %.pre = load i64, ptr %31, align 8, !tbaa !44
  br label %av_ts_make_string.exit

av_ts_make_string.exit:                           ; preds = %34, %35
  %37 = phi i64 [ -9223372036854775808, %34 ], [ %.pre, %35 ]
  call void @llvm.memset.p0.i64(ptr noundef nonnull align 1 dereferenceable(32) %5, i8 0, i64 32, i1 false)
  %38 = getelementptr inbounds nuw i8, ptr %0, i64 96
  %.val = load i64, ptr %38, align 4
  %39 = call ptr @av_ts_make_time_string2(ptr noundef nonnull %5, i64 noundef %37, i64 %.val) #6
  call void (ptr, i32, ptr, ...) @av_log(ptr noundef nonnull %7, i32 noundef 32, ptr noundef nonnull @.str.3, i64 noundef %30, ptr noundef nonnull %4, ptr noundef %39) #6
  %.not = icmp eq i32 %21, 0
  br i1 %.not, label %66, label %40

40:                                               ; preds = %av_ts_make_string.exit
  %41 = sub nsw i32 %26, %28
  %42 = add nsw i32 %41, 1
  %43 = sub nsw i32 %23, %24
  %44 = add nsw i32 %43, 1
  %45 = getelementptr inbounds nuw i8, ptr %1, i64 312
  %46 = load i32, ptr %3, align 4, !tbaa !38
  %47 = sext i32 %46 to i64
  %48 = call i32 @av_dict_set_int(ptr noundef nonnull %45, ptr noundef nonnull @.str.4, i64 noundef %47, i32 noundef 0) #6
  %49 = load i32, ptr %22, align 4, !tbaa !36
  %50 = sext i32 %49 to i64
  %51 = call i32 @av_dict_set_int(ptr noundef nonnull %45, ptr noundef nonnull @.str.5, i64 noundef %50, i32 noundef 0) #6
  %52 = load i32, ptr %27, align 4, !tbaa !40
  %53 = sext i32 %52 to i64
  %54 = call i32 @av_dict_set_int(ptr noundef nonnull %45, ptr noundef nonnull @.str.6, i64 noundef %53, i32 noundef 0) #6
  %55 = load i32, ptr %25, align 4, !tbaa !39
  %56 = sext i32 %55 to i64
  %57 = call i32 @av_dict_set_int(ptr noundef nonnull %45, ptr noundef nonnull @.str.7, i64 noundef %56, i32 noundef 0) #6
  %58 = sext i32 %44 to i64
  %59 = call i32 @av_dict_set_int(ptr noundef nonnull %45, ptr noundef nonnull @.str.8, i64 noundef %58, i32 noundef 0) #6
  %60 = sext i32 %42 to i64
  %61 = call i32 @av_dict_set_int(ptr noundef nonnull %45, ptr noundef nonnull @.str.9, i64 noundef %60, i32 noundef 0) #6
  %62 = load i32, ptr %3, align 4, !tbaa !38
  %63 = load i32, ptr %22, align 4, !tbaa !36
  %64 = load i32, ptr %27, align 4, !tbaa !40
  %65 = load i32, ptr %25, align 4, !tbaa !39
  call void (ptr, i32, ptr, ...) @av_log(ptr noundef nonnull %7, i32 noundef 32, ptr noundef nonnull @.str.10, i32 noundef %62, i32 noundef %63, i32 noundef %64, i32 noundef %65, i32 noundef %44, i32 noundef %42, i32 noundef %44, i32 noundef %42, i32 noundef %62, i32 noundef %64, i32 noundef %62, i32 noundef %64, i32 noundef %44, i32 noundef %42) #6
  br label %66

66:                                               ; preds = %40, %av_ts_make_string.exit
  call void (ptr, i32, ptr, ...) @av_log(ptr noundef nonnull %7, i32 noundef 32, ptr noundef nonnull @.str.11) #6
  %67 = load ptr, ptr %6, align 8, !tbaa !4
  %68 = getelementptr inbounds nuw i8, ptr %67, i64 56
  %69 = load ptr, ptr %68, align 8, !tbaa !49
  %70 = load ptr, ptr %69, align 8, !tbaa !50
  %71 = call i32 @ff_filter_frame(ptr noundef %70, ptr noundef nonnull %1) #6
  call void @llvm.lifetime.end.p0(i64 16, ptr nonnull %3) #6
  ret i32 %71
}